	.file	"drystone.c"
# GNU C (GCC) version 4.8.5 20150623 (Red Hat 4.8.5-4) (x86_64-redhat-linux)
#	compiled by GNU C version 4.8.5 20150623 (Red Hat 4.8.5-4), GMP version 6.0.0, MPFR version 3.1.1, MPC version 1.0.1
# GGC heuristics: --param ggc-min-expand=100 --param ggc-min-heapsize=131072
# options passed:  drystone.c -mtune=generic -march=x86-64
# -auxbase-strip dhry1.S -g -O1 -fverbose-asm
# options enabled:  -faggressive-loop-optimizations
# -fasynchronous-unwind-tables -fauto-inc-dec -fbranch-count-reg
# -fcombine-stack-adjustments -fcommon -fcompare-elim -fcprop-registers
# -fdefer-pop -fdelete-null-pointer-checks -fdwarf2-cfi-asm
# -fearly-inlining -feliminate-unused-debug-types -fforward-propagate
# -ffunction-cse -fgcse-lm -fgnu-runtime -fgnu-unique
# -fguess-branch-probability -fident -fif-conversion -fif-conversion2
# -finline -finline-atomics -finline-functions-called-once -fipa-profile
# -fipa-pure-const -fipa-reference -fira-hoist-pressure
# -fira-share-save-slots -fira-share-spill-slots -fivopts
# -fkeep-static-consts -fleading-underscore -fmath-errno -fmerge-constants
# -fmerge-debug-strings -fmove-loop-invariants -fomit-frame-pointer
# -fpeephole -fprefetch-loop-arrays -freg-struct-return
# -fsched-critical-path-heuristic -fsched-dep-count-heuristic
# -fsched-group-heuristic -fsched-interblock -fsched-last-insn-heuristic
# -fsched-rank-heuristic -fsched-spec -fsched-spec-insn-heuristic
# -fsched-stalled-insns-dep -fshow-column -fshrink-wrap -fsigned-zeros
# -fsplit-ivs-in-unroller -fsplit-wide-types -fstrict-volatile-bitfields
# -fsync-libcalls -ftoplevel-reorder -ftrapping-math -ftree-bit-ccp
# -ftree-ccp -ftree-ch -ftree-coalesce-vars -ftree-copy-prop
# -ftree-copyrename -ftree-cselim -ftree-dce -ftree-dominator-opts
# -ftree-dse -ftree-forwprop -ftree-fre -ftree-loop-if-convert
# -ftree-loop-im -ftree-loop-ivcanon -ftree-loop-optimize
# -ftree-parallelize-loops= -ftree-phiprop -ftree-pta -ftree-reassoc
# -ftree-scev-cprop -ftree-sink -ftree-slp-vectorize -ftree-slsr -ftree-sra
# -ftree-ter -ftree-vect-loop-version -funit-at-a-time -funwind-tables
# -fvar-tracking -fvar-tracking-assignments -fverbose-asm
# -fzero-initialized-in-bss -m128bit-long-double -m64 -m80387
# -maccumulate-outgoing-args -malign-stringops -mfancy-math-387
# -mfp-ret-in-387 -mfxsr -mglibc -mieee-fp -mlong-double-80 -mmmx -mno-sse4
# -mpush-args -mred-zone -msse -msse2 -mtls-direct-seg-refs

	.text
.Ltext0:
	.globl	Proc2
	.type	Proc2, @function
Proc2:
.LFB3:
	.file 1 "drystone.c"
	.loc 1 264 0
	.cfi_startproc
.LVL0:
	.loc 1 268 0
	movl	(%rdi), %eax	# *IntParIO_3(D), D.2017
.LVL1:
	.loc 1 271 0
	cmpb	$65, Char1Glob(%rip)	#, Char1Glob
	jne	.L3	#,
.LVL2:
	.loc 1 273 0
	addl	$9, %eax	#, IntLoc
.LVL3:
	.loc 1 274 0
	subl	IntGlob(%rip), %eax	# IntGlob, D.2017
.LVL4:
	movl	%eax, (%rdi)	# D.2017, *IntParIO_3(D)
.LVL5:
.L3:
	.loc 1 280 0
	rep ret
	.cfi_endproc
.LFE3:
	.size	Proc2, .-Proc2
	.globl	Proc3
	.type	Proc3, @function
Proc3:
.LFB4:
	.loc 1 284 0
	.cfi_startproc
.LVL6:
	.loc 1 285 0
	movq	PtrGlb(%rip), %rax	# PtrGlb, PtrGlb.15
	testq	%rax, %rax	# PtrGlb.15
	je	.L5	#,
	.loc 1 286 0
	movq	(%rax), %rax	# PtrGlb.15_3->PtrComp, D.2024
	movq	%rax, (%rdi)	# D.2024, *PtrParOut_5(D)
	jmp	.L6	#
.L5:
	.loc 1 288 0
	movl	$100, IntGlob(%rip)	#, IntGlob
.L6:
.LVL7:
.LBB4:
.LBB5:
	.loc 1 336 0
	movl	IntGlob(%rip), %eax	# IntGlob, tmp71
	leal	12(%rax), %edx	#, D.2025
	movq	PtrGlb(%rip), %rax	# PtrGlb, PtrGlb
	movl	%edx, 16(%rax)	# D.2025, MEM[(OneToFifty *)PtrGlb.15_8 + 16B]
.LBE5:
.LBE4:
	.loc 1 290 0
	ret
	.cfi_endproc
.LFE4:
	.size	Proc3, .-Proc3
	.globl	Proc4
	.type	Proc4, @function
Proc4:
.LFB5:
	.loc 1 293 0
	.cfi_startproc
.LVL8:
	.loc 1 298 0
	movb	$66, Char2Glob(%rip)	#, Char2Glob
	.loc 1 299 0
	ret
	.cfi_endproc
.LFE5:
	.size	Proc4, .-Proc4
	.globl	Proc5
	.type	Proc5, @function
Proc5:
.LFB6:
	.loc 1 302 0
	.cfi_startproc
	.loc 1 303 0
	movb	$65, Char1Glob(%rip)	#, Char1Glob
	.loc 1 304 0
	movl	$0, BoolGlob(%rip)	#, BoolGlob
	.loc 1 305 0
	ret
	.cfi_endproc
.LFE6:
	.size	Proc5, .-Proc5
	.globl	Proc6
	.type	Proc6, @function
Proc6:
.LFB7:
	.loc 1 312 0
	.cfi_startproc
.LVL9:
	.loc 1 314 0
	cmpl	$2, %edi	#, EnumParIn
	je	.L10	#,
	movl	$3, (%rsi)	#, *EnumParOut_4(D)
	.loc 1 316 0
	cmpl	$1, %edi	#, EnumParIn
	je	.L12	#,
	cmpl	$1, %edi	#, EnumParIn
	jb	.L13	#,
	cmpl	$2, %edi	#, EnumParIn
	je	.L10	#,
	cmpl	$4, %edi	#, EnumParIn
	.p2align 4,,2
	je	.L14	#,
	.p2align 4,,5
	rep ret
.L13:
	.loc 1 318 0
	movl	$0, (%rsi)	#, *EnumParOut_4(D)
	.p2align 4,,2
	ret
.L12:
	.loc 1 319 0
	cmpl	$101, IntGlob(%rip)	#, IntGlob
	setl	%al	#, tmp64
	movzbl	%al, %eax	# tmp64, tmp64
	leal	(%rax,%rax,2), %eax	#, tmp64
	movl	%eax, (%rsi)	# tmp64, *EnumParOut_4(D)
	ret
.L10:
	.loc 1 322 0
	movl	$1, (%rsi)	#, *EnumParOut_4(D)
	ret
.L14:
	.loc 1 324 0
	movl	$2, (%rsi)	#, *EnumParOut_4(D)
	.loc 1 326 0
	ret
	.cfi_endproc
.LFE7:
	.size	Proc6, .-Proc6
	.globl	Proc1
	.type	Proc1, @function
Proc1:
.LFB2:
	.loc 1 241 0
	.cfi_startproc
.LVL10:
	pushq	%rbx	#
	.cfi_def_cfa_offset 16
	.cfi_offset 3, -16
	movq	%rdi, %rbx	# PtrParIn, PtrParIn
	.loc 1 244 0
	movq	(%rdi), %rax	# PtrParIn_3(D)->PtrComp, D.2043
	movq	PtrGlb(%rip), %rdx	# PtrGlb, PtrGlb.12
	movq	(%rdx), %rcx	# *PtrGlb.12_5, *PtrGlb.12_5
	movq	%rcx, (%rax)	# *PtrGlb.12_5, *_4
	movq	8(%rdx), %rcx	# *PtrGlb.12_5, *PtrGlb.12_5
	movq	%rcx, 8(%rax)	# *PtrGlb.12_5, *_4
	movq	16(%rdx), %rcx	# *PtrGlb.12_5, *PtrGlb.12_5
	movq	%rcx, 16(%rax)	# *PtrGlb.12_5, *_4
	movq	24(%rdx), %rcx	# *PtrGlb.12_5, *PtrGlb.12_5
	movq	%rcx, 24(%rax)	# *PtrGlb.12_5, *_4
	movq	32(%rdx), %rcx	# *PtrGlb.12_5, *PtrGlb.12_5
	movq	%rcx, 32(%rax)	# *PtrGlb.12_5, *_4
	movq	40(%rdx), %rcx	# *PtrGlb.12_5, *PtrGlb.12_5
	movq	%rcx, 40(%rax)	# *PtrGlb.12_5, *_4
	movq	48(%rdx), %rdx	# *PtrGlb.12_5, *PtrGlb.12_5
	movq	%rdx, 48(%rax)	# *PtrGlb.12_5, *_4
	.loc 1 245 0
	movl	$5, 16(%rdi)	#, PtrParIn_3(D)->IntComp
	.loc 1 246 0
	movq	(%rdi), %rax	# PtrParIn_3(D)->PtrComp, D.2043
	movl	$5, 16(%rax)	#, _8->IntComp
	.loc 1 247 0
	movq	(%rdi), %rax	# PtrParIn_3(D)->PtrComp, D.2043
	movq	%rax, (%rax)	# D.2043, _10->PtrComp
	.loc 1 248 0
	movq	(%rdi), %rax	# PtrParIn_3(D)->PtrComp, PtrParIn_3(D)->PtrComp
	movq	(%rax), %rdi	# _12->PtrComp,
.LVL11:
	movl	$0, %eax	#,
	call	Proc3	#
.LVL12:
	.loc 1 249 0
	movq	(%rbx), %rax	# PtrParIn_3(D)->PtrComp, D.2043
	cmpl	$0, 8(%rax)	#, _15->Discr
	jne	.L18	#,
.LBB11:
	.loc 1 251 0
	movl	$6, 16(%rax)	#, _15->IntComp
	.loc 1 252 0
	movq	(%rbx), %rax	# PtrParIn_3(D)->PtrComp, tmp97
	leaq	12(%rax), %rsi	#, D.2045
	movl	12(%rbx), %edi	# PtrParIn_3(D)->EnumComp, PtrParIn_3(D)->EnumComp
	movl	$0, %eax	#,
	call	Proc6	#
.LVL13:
	.loc 1 253 0
	movq	(%rbx), %rax	# PtrParIn_3(D)->PtrComp, D.2043
	movq	PtrGlb(%rip), %rdx	# PtrGlb, PtrGlb
	movq	(%rdx), %rdx	# PtrGlb.12_23->PtrComp, D.2043
	movq	%rdx, (%rax)	# D.2043, _22->PtrComp
	.loc 1 254 0
	movq	(%rbx), %rax	# PtrParIn_3(D)->PtrComp, D.2043
.LVL14:
.LBB12:
.LBB13:
	.loc 1 336 0
	addl	$12, 16(%rax)	#, MEM[(OneToFifty *)_26 + 16B]
.LVL15:
	jmp	.L20	#
.LVL16:
.L18:
.LBE13:
.LBE12:
.LBE11:
	.loc 1 257 0
	movq	(%rax), %rdx	# *_15, *_15
	movq	%rdx, (%rbx)	# *_15, *PtrParIn_3(D)
	movq	8(%rax), %rdx	# *_15, *_15
	movq	%rdx, 8(%rbx)	# *_15, *PtrParIn_3(D)
	movq	16(%rax), %rdx	# *_15, *_15
	movq	%rdx, 16(%rbx)	# *_15, *PtrParIn_3(D)
	movq	24(%rax), %rdx	# *_15, *_15
	movq	%rdx, 24(%rbx)	# *_15, *PtrParIn_3(D)
	movq	32(%rax), %rdx	# *_15, *_15
	movq	%rdx, 32(%rbx)	# *_15, *PtrParIn_3(D)
	movq	40(%rax), %rdx	# *_15, *_15
	movq	%rdx, 40(%rbx)	# *_15, *PtrParIn_3(D)
	movq	48(%rax), %rax	# *_15, *_15
	movq	%rax, 48(%rbx)	# *_15, *PtrParIn_3(D)
.L20:
	.loc 1 260 0
	popq	%rbx	#
	.cfi_def_cfa_offset 8
.LVL17:
	ret
	.cfi_endproc
.LFE2:
	.size	Proc1, .-Proc1
	.globl	Proc7
	.type	Proc7, @function
Proc7:
.LFB8:
	.loc 1 332 0
	.cfi_startproc
.LVL18:
	.loc 1 336 0
	leal	2(%rdi,%rsi), %eax	#, tmp66
	movl	%eax, (%rdx)	# tmp66, *IntParOut_6(D)
	.loc 1 337 0
	ret
	.cfi_endproc
.LFE8:
	.size	Proc7, .-Proc7
	.globl	Proc8
	.type	Proc8, @function
Proc8:
.LFB9:
	.loc 1 344 0
	.cfi_startproc
.LVL19:
	.loc 1 348 0
	leal	5(%rdx), %r8d	#, IntIndex
.LVL20:
	.loc 1 349 0
	movslq	%r8d, %r10	# IntIndex, D.2065
	leaq	0(,%r10,4), %rax	#, D.2065
	leaq	(%rdi,%rax), %r11	#, D.2066
	movl	%ecx, (%r11)	# IntParI2, *_8
	.loc 1 350 0
	movl	%ecx, 4(%rdi,%rax)	# IntParI2, *_14
	.loc 1 351 0
	movl	%r8d, 120(%rdi,%rax)	# IntIndex, *_18
.LVL21:
	.loc 1 352 0
	leal	6(%rdx), %edi	#, D.2067
.LVL22:
	cmpl	%edi, %r8d	# D.2067, IntIndex
	jg	.L24	#,
	.loc 1 353 0
	imulq	$204, %r10, %r9	#, D.2065, D.2065
	addq	%rsi, %r9	# Array2Par, D.2063
	.loc 1 352 0
	movl	%r8d, %eax	# IntIndex, IntIndex
.LVL23:
.L25:
	.loc 1 353 0 discriminator 2
	movslq	%eax, %rcx	# IntIndex, IntIndex
	movl	%r8d, (%r9,%rcx,4)	# IntIndex, *_23
	.loc 1 352 0 discriminator 2
	addl	$1, %eax	#, IntIndex
.LVL24:
	cmpl	%edi, %eax	# D.2067, IntIndex
	jle	.L25	#,
.LVL25:
.L24:
	.loc 1 354 0
	imulq	$204, %r10, %r10	#, D.2065, D.2065
	leaq	(%rsi,%r10), %rax	#, D.2063
	addl	$4, %edx	#, D.2067
.LVL26:
	movslq	%edx, %rdx	# D.2067, D.2064
	addl	$1, (%rax,%rdx,4)	#, MEM[(int[51] *)_1]
	.loc 1 355 0
	movl	(%r11), %edx	# *_8, D.2067
.LVL27:
	movslq	%r8d, %r8	# IntIndex, IntIndex
	leaq	(%rsi,%r8,4), %rax	#, tmp99
	movl	%edx, 4080(%r10,%rax)	# D.2067, *_33
	.loc 1 356 0
	movl	$5, IntGlob(%rip)	#, IntGlob
	.loc 1 357 0
	ret
	.cfi_endproc
.LFE9:
	.size	Proc8, .-Proc8
	.globl	Func1
	.type	Func1, @function
Func1:
.LFB10:
	.loc 1 362 0
	.cfi_startproc
.LVL28:
	.loc 1 368 0
	cmpb	%sil, %dil	# CharPar2, CharPar1
	sete	%al	#, D.2076
	movzbl	%al, %eax	# D.2076, D.2076
	.loc 1 372 0
	ret
	.cfi_endproc
.LFE10:
	.size	Func1, .-Func1
	.globl	Func2
	.type	Func2, @function
Func2:
.LFB11:
	.loc 1 377 0
	.cfi_startproc
.LVL29:
	.loc 1 383 0
	movzbl	1(%rdi), %eax	# MEM[(char *)StrParI1_10(D) + 1B], tmp71
	cmpb	%al, 2(%rsi)	# tmp71, MEM[(char *)StrParI2_5(D) + 2B]
	jne	.L28	#,
.LVL30:
.L29:
	jmp	.L29	#
.LVL31:
.L28:
	.loc 1 377 0
	subq	$8, %rsp	#,
	.cfi_def_cfa_offset 16
.LVL32:
.LBB17:
	.loc 1 394 0
	call	strcmp	#
.LVL33:
	testl	%eax, %eax	# D.2086
	setg	%al	#, D.2087
	movzbl	%al, %eax	# D.2087, D.2087
.LBE17:
	.loc 1 402 0
	addq	$8, %rsp	#,
	.cfi_def_cfa_offset 8
	ret
	.cfi_endproc
.LFE11:
	.size	Func2, .-Func2
	.section	.rodata.str1.8,"aMS",@progbits,1
	.align 8
.LC0:
	.string	"Dhrystone time for %ld passes = %ld\n"
	.align 8
.LC1:
	.string	"This machine benchmarks at %ld dhrystones/second\n"
	.text
	.globl	Proc0
	.type	Proc0, @function
Proc0:
.LFB1:
	.loc 1 145 0
	.cfi_startproc
	pushq	%r13	#
	.cfi_def_cfa_offset 16
	.cfi_offset 13, -16
	pushq	%r12	#
	.cfi_def_cfa_offset 24
	.cfi_offset 12, -24
	pushq	%rbp	#
	.cfi_def_cfa_offset 32
	.cfi_offset 6, -32
	pushq	%rbx	#
	.cfi_def_cfa_offset 40
	.cfi_offset 3, -40
	subq	$88, %rsp	#,
	.cfi_def_cfa_offset 128
	.loc 1 161 0
	movl	$0, %edi	#,
	movl	$0, %eax	#,
	call	time	#
.LVL34:
	movq	%rax, %rbx	#, starttime
.LVL35:
	movl	$100000000, %edx	#, D.2127
.LVL36:
.L33:
	.loc 1 162 0 discriminator 2
	subl	$1, %edx	#, D.2127
.LVL37:
	jne	.L33	#,
	.loc 1 163 0
	movl	$0, %edi	#,
	movl	$0, %eax	#,
.LVL38:
	call	time	#
.LVL39:
	subq	%rbx, %rax	# starttime, nulltime
	movq	%rax, %r13	# nulltime, nulltime
.LVL40:
	.loc 1 176 0
	movl	$56, %edi	#,
	call	malloc	#
.LVL41:
	movq	%rax, %rbx	#, tmp96
.LVL42:
	movq	%rax, PtrGlbNext(%rip)	# tmp96, PtrGlbNext
	.loc 1 177 0
	movl	$56, %edi	#,
	call	malloc	#
.LVL43:
	movq	%rax, %rdx	#, tmp97
	movq	%rax, PtrGlb(%rip)	# tmp97, PtrGlb
	.loc 1 178 0
	movq	%rbx, (%rax)	# tmp96, MEM[(struct RecordType *)PtrGlb.1_19].PtrComp
	.loc 1 179 0
	movl	$0, 8(%rax)	#, MEM[(struct RecordType *)PtrGlb.1_19].Discr
	.loc 1 180 0
	movl	$2, 12(%rax)	#, MEM[(struct RecordType *)PtrGlb.1_19].EnumComp
	.loc 1 181 0
	movl	$40, 16(%rax)	#, MEM[(struct RecordType *)PtrGlb.1_19].IntComp
	.loc 1 182 0
	movabsq	$5642821575076104260, %rcx	#, tmp128
	movq	%rcx, 20(%rdx)	# tmp128, MEM[(void *)PtrGlb.1_19 + 20B]
	movabsq	$4706902966564560965, %rcx	#, tmp129
	movq	%rcx, 28(%rdx)	# tmp129, MEM[(void *)PtrGlb.1_19 + 20B]
	movabsq	$2325349785699101773, %rcx	#, tmp130
	movq	%rcx, 36(%rdx)	# tmp130, MEM[(void *)PtrGlb.1_19 + 20B]
	movl	$1230132307, 44(%rdx)	#, MEM[(void *)PtrGlb.1_19 + 20B]
	movw	$18254, 48(%rdx)	#, MEM[(void *)PtrGlb.1_19 + 20B]
	movb	$0, 50(%rdx)	#, MEM[(void *)PtrGlb.1_19 + 20B]
	.loc 1 188 0
	movl	$0, %edi	#,
	movl	$0, %eax	#,
	call	time	#
.LVL44:
	movq	%rax, %r12	#, starttime
.LVL45:
	movl	$100000000, %ebp	#, D.2127
.LVL46:
.L41:
.LBB26:
	.loc 1 196 0
	movl	$0, %eax	#,
	call	Proc5	#
.LVL47:
.LBB27:
.LBB28:
	.loc 1 298 0
	movb	$66, Char2Glob(%rip)	#, Char2Glob
.LBE28:
.LBE27:
	.loc 1 198 0
	movl	$2, 76(%rsp)	#, IntLoc1
.LVL48:
	.loc 1 200 0
	movabsq	$5642821575076104260, %rax	#, tmp131
	movq	%rax, (%rsp)	# tmp131, MEM[(char * {ref-all})&String2Loc]
	movabsq	$4706902966564560965, %rax	#, tmp132
	movq	%rax, 8(%rsp)	# tmp132, MEM[(char * {ref-all})&String2Loc]
	movabsq	$2325069237881678925, %rax	#, tmp133
	movq	%rax, 16(%rsp)	# tmp133, MEM[(char * {ref-all})&String2Loc]
	movl	$1230132307, 24(%rsp)	#, MEM[(char * {ref-all})&String2Loc]
	movw	$18254, 28(%rsp)	#, MEM[(char * {ref-all})&String2Loc]
	movb	$0, 30(%rsp)	#, MEM[(char * {ref-all})&String2Loc]
	.loc 1 201 0
	movl	$1, 72(%rsp)	#, EnumLoc
	.loc 1 202 0
	movq	%rsp, %rsi	#,
	leaq	32(%rsp), %rdi	#, tmp134
	movl	$0, %eax	#,
	call	Func2	#
.LVL49:
	testl	%eax, %eax	# D.2130
	sete	%al	#, D.2131
	movzbl	%al, %eax	# D.2131, D.2131
	movl	%eax, BoolGlob(%rip)	# D.2131, BoolGlob
	.loc 1 203 0
	movl	$2, %edx	#, IntLoc1.5
.L36:
.LVL50:
.LBB29:
	.loc 1 207 0
	addl	$1, %edx	#, IntLoc1.7
.LVL51:
.LBE29:
	.loc 1 203 0
	cmpl	$3, %edx	#, IntLoc1.7
	jne	.L36	#,
	movl	$3, 76(%rsp)	#, IntLoc1
	.loc 1 209 0
	movl	$7, %ecx	#,
	movl	$3, %edx	#,
.LVL52:
	movl	$Array2Glob, %esi	#,
	movl	$Array1Glob, %edi	#,
	movl	$0, %eax	#,
	call	Proc8	#
.LVL53:
	.loc 1 210 0
	movq	PtrGlb(%rip), %rdi	# PtrGlb,
	movl	$0, %eax	#,
	call	Proc1	#
.LVL54:
	.loc 1 211 0
	cmpb	$64, Char2Glob(%rip)	#, Char2Glob
	jle	.L37	#,
	movl	$65, %ebx	#, CharIndex
.LVL55:
.L39:
.LBB30:
.LBB31:
	.loc 1 368 0
	cmpb	$67, %bl	#, CharIndex
	sete	%al	#, D.2131
	movzbl	%al, %eax	# D.2131, D.2131
.LBE31:
.LBE30:
	.loc 1 212 0
	cmpl	%eax, 72(%rsp)	# D.2131, EnumLoc
	jne	.L38	#,
	.loc 1 213 0
	leaq	72(%rsp), %rsi	#, tmp135
	movl	$0, %edi	#,
	movl	$0, %eax	#,
	call	Proc6	#
.LVL56:
.L38:
	.loc 1 211 0
	addl	$1, %ebx	#, CharIndex
.LVL57:
	cmpb	%bl, Char2Glob(%rip)	# CharIndex, Char2Glob
	jge	.L39	#,
.LVL58:
.L37:
	.loc 1 217 0
	leaq	76(%rsp), %rdi	#, tmp136
	movl	$0, %eax	#,
	call	Proc2	#
.LVL59:
.LBE26:
	.loc 1 193 0
	subl	$1, %ebp	#, D.2127
.LVL60:
	jne	.L41	#,
	.loc 1 224 0
	movl	$0, %edi	#,
	movl	$0, %eax	#,
	call	time	#
.LVL61:
	subq	%r12, %rax	# starttime, D.2128
	movq	%rax, %rbx	# D.2128, D.2128
	subq	%r13, %rbx	# nulltime, benchtime
.LVL62:
	.loc 1 225 0
	movq	%rbx, %rdx	# benchtime,
	movl	$100000000, %esi	#,
	movl	$.LC0, %edi	#,
	movl	$0, %eax	#,
	call	printf	#
.LVL63:
	.loc 1 226 0
	movl	$100000000, %eax	#, tmp121
	cqto
	idivq	%rbx	# benchtime
	movq	%rax, %rsi	# D.2128, D.2128
	movl	$.LC1, %edi	#,
	movl	$0, %eax	#,
	call	printf	#
.LVL64:
	.loc 1 237 0
	addq	$88, %rsp	#,
	.cfi_def_cfa_offset 40
	popq	%rbx	#
	.cfi_def_cfa_offset 32
.LVL65:
	popq	%rbp	#
	.cfi_def_cfa_offset 24
.LVL66:
	popq	%r12	#
	.cfi_def_cfa_offset 16
.LVL67:
	popq	%r13	#
	.cfi_def_cfa_offset 8
.LVL68:
	ret
	.cfi_endproc
.LFE1:
	.size	Proc0, .-Proc0
	.globl	main
	.type	main, @function
main:
.LFB0:
	.loc 1 128 0
	.cfi_startproc
	subq	$8, %rsp	#,
	.cfi_def_cfa_offset 16
	.loc 1 129 0
	movl	$0, %eax	#,
	call	Proc0	#
.LVL69:
	.loc 1 130 0
	addq	$8, %rsp	#,
	.cfi_def_cfa_offset 8
	ret
	.cfi_endproc
.LFE0:
	.size	main, .-main
	.globl	Func3
	.type	Func3, @function
Func3:
.LFB12:
	.loc 1 406 0
	.cfi_startproc
.LVL70:
	.loc 1 410 0
	cmpl	$2, %edi	#, EnumParIn
	sete	%al	#, D.2138
	movzbl	%al, %eax	# D.2138, D.2138
	.loc 1 412 0
	ret
	.cfi_endproc
.LFE12:
	.size	Func3, .-Func3
	.comm	PtrGlbNext,8,8
	.comm	PtrGlb,8,8
	.comm	Array2Glob,10404,32
	.comm	Array1Glob,204,32
	.comm	Char2Glob,1,1
	.comm	Char1Glob,1,1
	.comm	BoolGlob,4,4
	.comm	IntGlob,4,4
.Letext0:
	.file 2 "<built-in>"
	.section	.note.GNU-stack,"",@progbits
